target datalayout = "e-m:e-p270:32:32-p271:32:32-p272:64:64-i64:64-i128:128-f80:128-n8:16:32:64-S128"
target triple = "x86_64-unknown-linux-gnu"

%"class.ue2::depth" = type { i32 }
%"struct.ue2::(anonymous namespace)::SpecialEdgeFilter" = type { ptr, i8, i32 }
%"class.ue2::graph_detail::vertex_descriptor" = type { ptr, i64 }
%"class.ue2::NGHolder" = type { ptr, %"class.ue2::ue2_graph", i32, %"class.ue2::graph_detail::vertex_descriptor", %"class.ue2::graph_detail::vertex_descriptor", %"class.ue2::graph_detail::vertex_descriptor", %"class.ue2::graph_detail::vertex_descriptor" }
%"class.ue2::ue2_graph" = type { %"class.boost::intrusive::list", i64, i64, i64, i64 }
%"class.boost::intrusive::list" = type { %"class.boost::intrusive::list_impl" }
%"class.boost::intrusive::list_impl" = type { %"struct.boost::intrusive::list_impl<boost::intrusive::bhtraits<ue2::ue2_graph<ue2::NGHolder, ue2::NFAGraphVertexProps, ue2::NFAGraphEdgeProps>::vertex_node, boost::intrusive::list_node_traits<void *>, boost::intrusive::safe_link, boost::intrusive::dft_tag, 1>, unsigned long, true, void>::data_t" }
%"struct.boost::intrusive::list_impl<boost::intrusive::bhtraits<ue2::ue2_graph<ue2::NGHolder, ue2::NFAGraphVertexProps, ue2::NFAGraphEdgeProps>::vertex_node, boost::intrusive::list_node_traits<void *>, boost::intrusive::safe_link, boost::intrusive::dft_tag, 1>, unsigned long, true, void>::data_t" = type { %"struct.boost::intrusive::list_impl<boost::intrusive::bhtraits<ue2::ue2_graph<ue2::NGHolder, ue2::NFAGraphVertexProps, ue2::NFAGraphEdgeProps>::vertex_node, boost::intrusive::list_node_traits<void *>, boost::intrusive::safe_link, boost::intrusive::dft_tag, 1>, unsigned long, true, void>::root_plus_size" }
%"struct.boost::intrusive::list_impl<boost::intrusive::bhtraits<ue2::ue2_graph<ue2::NGHolder, ue2::NFAGraphVertexProps, ue2::NFAGraphEdgeProps>::vertex_node, boost::intrusive::list_node_traits<void *>, boost::intrusive::safe_link, boost::intrusive::dft_tag, 1>, unsigned long, true, void>::root_plus_size" = type { %"struct.boost::intrusive::detail::size_holder", %"struct.boost::intrusive::detail::default_header_holder" }
%"struct.boost::intrusive::detail::size_holder" = type { i64 }
%"struct.boost::intrusive::detail::default_header_holder" = type { %"struct.boost::intrusive::list_node" }
%"struct.boost::intrusive::list_node" = type { ptr, ptr }

; Function Attrs: mustprogress nounwind uwtable
define linkonce_odr hidden noundef zeroext i1 @_ZNK3ue25depthltERKS0_(ptr noundef nonnull align 4 dereferenceable(4) %this, ptr noundef nonnull align 4 dereferenceable(4) %d) #1 comdat align 2 {
entry:
  %this.addr = alloca ptr, align 8
  %d.addr = alloca ptr, align 8
  store ptr %this, ptr %this.addr, align 8
  store ptr %d, ptr %d.addr, align 8
  %this1 = load ptr, ptr %this.addr, align 8
  %val = getelementptr inbounds %"class.ue2::depth", ptr %this1, i32 0, i32 0
  %0 = load i32, ptr %val, align 4
  %1 = load ptr, ptr %d.addr, align 8
  %val2 = getelementptr inbounds %"class.ue2::depth", ptr %1, i32 0, i32 0
  %2 = load i32, ptr %val2, align 4
  %cmp = icmp ult i32 %0, %2
  ret i1 %cmp
}

; Function Attrs: mustprogress uwtable
define linkonce_odr hidden noundef nonnull align 4 dereferenceable(4) ptr @_ZSt3minIN3ue25depthEERKT_S4_S4_(ptr noundef nonnull align 4 dereferenceable(4) %__a, ptr noundef nonnull align 4 dereferenceable(4) %__b) #3 comdat {
entry:
  %retval = alloca ptr, align 8
  %__a.addr = alloca ptr, align 8
  %__b.addr = alloca ptr, align 8
  store ptr %__a, ptr %__a.addr, align 8
  store ptr %__b, ptr %__b.addr, align 8
  %0 = load ptr, ptr %__b.addr, align 8
  %1 = load ptr, ptr %__a.addr, align 8
  %call = call noundef zeroext i1 @_ZNK3ue25depthltERKS0_(ptr noundef nonnull align 4 dereferenceable(4) %0, ptr noundef nonnull align 4 dereferenceable(4) %1)
  br i1 %call, label %if.then, label %if.end

if.then:                                          ; preds = %entry
  %2 = load ptr, ptr %__b.addr, align 8
  store ptr %2, ptr %retval, align 8
  br label %return

if.end:                                           ; preds = %entry
  %3 = load ptr, ptr %__a.addr, align 8
  store ptr %3, ptr %retval, align 8
  br label %return

return:                                           ; preds = %if.end, %if.then
  %4 = load ptr, ptr %retval, align 8
  ret ptr %4
}

; Function Attrs: mustprogress nounwind uwtable
define linkonce_odr hidden noundef zeroext i1 @_ZNK3ue25depth14is_unreachableEv(ptr noundef nonnull align 4 dereferenceable(4) %this) #1 comdat align 2 {
entry:
  %this.addr = alloca ptr, align 8
  store ptr %this, ptr %this.addr, align 8
  %this1 = load ptr, ptr %this.addr, align 8
  %val = getelementptr inbounds %"class.ue2::depth", ptr %this1, i32 0, i32 0
  %0 = load i32, ptr %val, align 4
  %cmp = icmp eq i32 %0, -2147483648
  ret i1 %cmp
}

; Function Attrs: mustprogress uwtable
define internal i32 @_ZN3ue2L12findMinWidthERKNS_8NGHolderERKNS_12_GLOBAL__N_117SpecialEdgeFilterE(ptr noundef nonnull align 8 dereferenceable(136) %h, ptr noundef nonnull align 8 dereferenceable(16) %filter) #3 {
entry:
  %retval = alloca %"class.ue2::depth", align 4
  %h.addr = alloca ptr, align 8
  %filter.addr = alloca ptr, align 8
  %startDepth = alloca %"class.ue2::depth", align 4
  %agg.tmp = alloca %"class.ue2::graph_detail::vertex_descriptor", align 8
  %dotstarDepth = alloca %"class.ue2::depth", align 4
  %agg.tmp1 = alloca %"class.ue2::graph_detail::vertex_descriptor", align 8
  store ptr %h, ptr %h.addr, align 8
  store ptr %filter, ptr %filter.addr, align 8
  %0 = load ptr, ptr %h.addr, align 8
  %1 = load ptr, ptr %filter.addr, align 8
  %2 = load ptr, ptr %h.addr, align 8
  %start = getelementptr inbounds %"class.ue2::NGHolder", ptr %2, i32 0, i32 3
  call void @llvm.memcpy.p0.p0.i64(ptr align 8 %agg.tmp, ptr align 8 %start, i64 16, i1 false)
  %3 = getelementptr inbounds { ptr, i64 }, ptr %agg.tmp, i32 0, i32 0
  %4 = load ptr, ptr %3, align 8
  %5 = getelementptr inbounds { ptr, i64 }, ptr %agg.tmp, i32 0, i32 1
  %6 = load i64, ptr %5, align 8
  %call = call i32 @_ZN3ue2L12findMinWidthERKNS_8NGHolderERKNS_12_GLOBAL__N_117SpecialEdgeFilterENS_12graph_detail17vertex_descriptorINS_9ue2_graphIS0_NS_19NFAGraphVertexPropsENS_17NFAGraphEdgePropsEEEEE(ptr noundef nonnull align 8 dereferenceable(136) %0, ptr noundef nonnull align 8 dereferenceable(16) %1, ptr %4, i64 %6)
  %coerce.dive = getelementptr inbounds %"class.ue2::depth", ptr %startDepth, i32 0, i32 0
  store i32 %call, ptr %coerce.dive, align 4
  %7 = load ptr, ptr %h.addr, align 8
  %8 = load ptr, ptr %filter.addr, align 8
  %9 = load ptr, ptr %h.addr, align 8
  %startDs = getelementptr inbounds %"class.ue2::NGHolder", ptr %9, i32 0, i32 4
  call void @llvm.memcpy.p0.p0.i64(ptr align 8 %agg.tmp1, ptr align 8 %startDs, i64 16, i1 false)
  %10 = getelementptr inbounds { ptr, i64 }, ptr %agg.tmp1, i32 0, i32 0
  %11 = load ptr, ptr %10, align 8
  %12 = getelementptr inbounds { ptr, i64 }, ptr %agg.tmp1, i32 0, i32 1
  %13 = load i64, ptr %12, align 8
  %call2 = call i32 @_ZN3ue2L12findMinWidthERKNS_8NGHolderERKNS_12_GLOBAL__N_117SpecialEdgeFilterENS_12graph_detail17vertex_descriptorINS_9ue2_graphIS0_NS_19NFAGraphVertexPropsENS_17NFAGraphEdgePropsEEEEE(ptr noundef nonnull align 8 dereferenceable(136) %7, ptr noundef nonnull align 8 dereferenceable(16) %8, ptr %11, i64 %13)
  %coerce.dive3 = getelementptr inbounds %"class.ue2::depth", ptr %dotstarDepth, i32 0, i32 0
  store i32 %call2, ptr %coerce.dive3, align 4
  br label %do.body

do.body:                                          ; preds = %entry
  br label %do.end

do.end:                                           ; preds = %do.body
  %call4 = call noundef zeroext i1 @_ZNK3ue25depth14is_unreachableEv(ptr noundef nonnull align 4 dereferenceable(4) %startDepth)
  br i1 %call4, label %if.then, label %if.else

if.then:                                          ; preds = %do.end
  call void @llvm.memcpy.p0.p0.i64(ptr align 4 %retval, ptr align 4 %dotstarDepth, i64 4, i1 false)
  br label %return

if.else:                                          ; preds = %do.end
  %call5 = call noundef zeroext i1 @_ZNK3ue25depth14is_unreachableEv(ptr noundef nonnull align 4 dereferenceable(4) %dotstarDepth)
  br i1 %call5, label %if.then6, label %if.else7

if.then6:                                         ; preds = %if.else
  call void @llvm.memcpy.p0.p0.i64(ptr align 4 %retval, ptr align 4 %startDepth, i64 4, i1 false)
  br label %return

if.else7:                                         ; preds = %if.else
  %call8 = call noundef nonnull align 4 dereferenceable(4) ptr @_ZSt3minIN3ue25depthEERKT_S4_S4_(ptr noundef nonnull align 4 dereferenceable(4) %startDepth, ptr noundef nonnull align 4 dereferenceable(4) %dotstarDepth)
  call void @llvm.memcpy.p0.p0.i64(ptr align 4 %retval, ptr align 4 %call8, i64 4, i1 false)
  br label %return

return:                                           ; preds = %if.else7, %if.then6, %if.then
  %coerce.dive9 = getelementptr inbounds %"class.ue2::depth", ptr %retval, i32 0, i32 0
  %14 = load i32, ptr %coerce.dive9, align 4
  ret i32 %14
}

; Function Attrs: mustprogress nounwind uwtable
define internal void @_ZN3ue212_GLOBAL__N_117SpecialEdgeFilterC2ERKNS_8NGHolderEj(ptr noundef nonnull align 8 dereferenceable(16) %this, ptr noundef nonnull align 8 dereferenceable(136) %h_in, i32 noundef %top_in) unnamed_addr #1 align 2 {
entry:
  %this.addr = alloca ptr, align 8
  %h_in.addr = alloca ptr, align 8
  %top_in.addr = alloca i32, align 4
  store ptr %this, ptr %this.addr, align 8
  store ptr %h_in, ptr %h_in.addr, align 8
  store i32 %top_in, ptr %top_in.addr, align 4
  %this1 = load ptr, ptr %this.addr, align 8
  %h = getelementptr inbounds %"struct.ue2::(anonymous namespace)::SpecialEdgeFilter", ptr %this1, i32 0, i32 0
  %0 = load ptr, ptr %h_in.addr, align 8
  store ptr %0, ptr %h, align 8
  %single_top = getelementptr inbounds %"struct.ue2::(anonymous namespace)::SpecialEdgeFilter", ptr %this1, i32 0, i32 1
  store i8 1, ptr %single_top, align 8
  %top = getelementptr inbounds %"struct.ue2::(anonymous namespace)::SpecialEdgeFilter", ptr %this1, i32 0, i32 2
  %1 = load i32, ptr %top_in.addr, align 4
  store i32 %1, ptr %top, align 4
  ret void
}

; Function Attrs: mustprogress uwtable
define hidden i32 @_ZN3ue212findMinWidthERKNS_8NGHolderEj(ptr noundef nonnull align 8 dereferenceable(136) %h, i32 noundef %top) #3 {
entry:
  %retval = alloca %"class.ue2::depth", align 4
  %h.addr = alloca ptr, align 8
  %top.addr = alloca i32, align 4
  %ref.tmp = alloca %"struct.ue2::(anonymous namespace)::SpecialEdgeFilter", align 8
  store ptr %h, ptr %h.addr, align 8
  store i32 %top, ptr %top.addr, align 4
  %0 = load ptr, ptr %h.addr, align 8
  %1 = load ptr, ptr %h.addr, align 8
  %2 = load i32, ptr %top.addr, align 4
  call void @_ZN3ue212_GLOBAL__N_117SpecialEdgeFilterC2ERKNS_8NGHolderEj(ptr noundef nonnull align 8 dereferenceable(16) %ref.tmp, ptr noundef nonnull align 8 dereferenceable(136) %1, i32 noundef %2)
  %call = call i32 @_ZN3ue2L12findMinWidthERKNS_8NGHolderERKNS_12_GLOBAL__N_117SpecialEdgeFilterE(ptr noundef nonnull align 8 dereferenceable(136) %0, ptr noundef nonnull align 8 dereferenceable(16) %ref.tmp)
  %coerce.dive = getelementptr inbounds %"class.ue2::depth", ptr %retval, i32 0, i32 0
  store i32 %call, ptr %coerce.dive, align 4
  %coerce.dive1 = getelementptr inbounds %"class.ue2::depth", ptr %retval, i32 0, i32 0
  %3 = load i32, ptr %coerce.dive1, align 4
  ret i32 %3
}