; Function Attrs: mustprogress uwtable
define hidden i32 @_ZN3ue212findMinWidthERKNS_8NGHolderEj(ptr noundef nonnull align 8 dereferenceable(136) %h, i32 noundef %top) local_unnamed_addr #2 {
entry:
  %startDepth.sroa.0.i = alloca i32, align 4
  %dotstarDepth.sroa.0.i = alloca i32, align 4
  call void @llvm.lifetime.start.p0(i64 4, ptr nonnull %startDepth.sroa.0.i)
  call void @llvm.lifetime.start.p0(i64 4, ptr nonnull %dotstarDepth.sroa.0.i)
  %start.i = getelementptr inbounds i8, ptr %h, i64 72
  %agg.tmp.sroa.0.0.copyload.i = load ptr, ptr %start.i, align 8
  %agg.tmp.sroa.2.0.start.sroa_idx.i = getelementptr inbounds i8, ptr %h, i64 80
  %agg.tmp.sroa.2.0.copyload.i = load i64, ptr %agg.tmp.sroa.2.0.start.sroa_idx.i, align 8
  %ref.tmp.sroa.69.8.insert.ext = zext i32 %top to i64
  %ref.tmp.sroa.69.8.insert.shift = shl nuw i64 %ref.tmp.sroa.69.8.insert.ext, 32
  %ref.tmp.sroa.3.8.insert.insert = or disjoint i64 %ref.tmp.sroa.69.8.insert.shift, 1
  %call.i = tail call fastcc i32 @_ZN3ue2L12findMinWidthERKNS_8NGHolderERKNS_12_GLOBAL__N_117SpecialEdgeFilterENS_12graph_detail17vertex_descriptorINS_9ue2_graphIS0_NS_19NFAGraphVertexPropsENS_17NFAGraphEdgePropsEEEEE(ptr noundef nonnull align 8 dereferenceable(136) %h, ptr nonnull %h, i64 %ref.tmp.sroa.3.8.insert.insert, ptr %agg.tmp.sroa.0.0.copyload.i, i64 %agg.tmp.sroa.2.0.copyload.i)
  store i32 %call.i, ptr %startDepth.sroa.0.i, align 4
  %startDs.i = getelementptr inbounds i8, ptr %h, i64 88
  %agg.tmp1.sroa.0.0.copyload.i = load ptr, ptr %startDs.i, align 8
  %agg.tmp1.sroa.2.0.startDs.sroa_idx.i = getelementptr inbounds i8, ptr %h, i64 96
  %agg.tmp1.sroa.2.0.copyload.i = load i64, ptr %agg.tmp1.sroa.2.0.startDs.sroa_idx.i, align 8
  %call2.i = tail call fastcc i32 @_ZN3ue2L12findMinWidthERKNS_8NGHolderERKNS_12_GLOBAL__N_117SpecialEdgeFilterENS_12graph_detail17vertex_descriptorINS_9ue2_graphIS0_NS_19NFAGraphVertexPropsENS_17NFAGraphEdgePropsEEEEE(ptr noundef nonnull align 8 dereferenceable(136) %h, ptr nonnull %h, i64 %ref.tmp.sroa.3.8.insert.insert, ptr %agg.tmp1.sroa.0.0.copyload.i, i64 %agg.tmp1.sroa.2.0.copyload.i)
  store i32 %call2.i, ptr %dotstarDepth.sroa.0.i, align 4
  %cmp.i.i = icmp eq i32 %call.i, -2147483648
  br i1 %cmp.i.i, label %_ZN3ue2L12findMinWidthERKNS_8NGHolderERKNS_12_GLOBAL__N_117SpecialEdgeFilterE.exit, label %if.else.i

if.else.i:                                        ; preds = %entry
  %cmp.i10.i = icmp eq i32 %call2.i, -2147483648
  br i1 %cmp.i10.i, label %_ZN3ue2L12findMinWidthERKNS_8NGHolderERKNS_12_GLOBAL__N_117SpecialEdgeFilterE.exit, label %if.else7.i

if.else7.i:                                       ; preds = %if.else.i
  %cmp.i.i.i = icmp ult i32 %call2.i, %call.i
  %__b.__a.i.i = select i1 %cmp.i.i.i, ptr %dotstarDepth.sroa.0.i, ptr %startDepth.sroa.0.i
  br label %_ZN3ue2L12findMinWidthERKNS_8NGHolderERKNS_12_GLOBAL__N_117SpecialEdgeFilterE.exit

_ZN3ue2L12findMinWidthERKNS_8NGHolderERKNS_12_GLOBAL__N_117SpecialEdgeFilterE.exit: ; preds = %entry, %if.else.i, %if.else7.i
  %retval.sroa.0.0.in.i = phi ptr [ %__b.__a.i.i, %if.else7.i ], [ %dotstarDepth.sroa.0.i, %entry ], [ %startDepth.sroa.0.i, %if.else.i ]
  %retval.sroa.0.0.i = load i32, ptr %retval.sroa.0.0.in.i, align 4
  call void @llvm.lifetime.end.p0(i64 4, ptr nonnull %startDepth.sroa.0.i)
  call void @llvm.lifetime.end.p0(i64 4, ptr nonnull %dotstarDepth.sroa.0.i)
  ret i32 %retval.sroa.0.0.i
}